target datalayout = "e-m:e-p270:32:32-p271:32:32-p272:64:64-i64:64-i128:128-f80:128-n8:16:32:64-S128"
target triple = "x86_64-pc-linux-gnu"

%"class.llvm::PointerUnion.643" = type { %"class.llvm::pointer_union_detail::PointerUnionMembers.644" }
%"class.llvm::pointer_union_detail::PointerUnionMembers.644" = type { %"class.llvm::pointer_union_detail::PointerUnionMembers.645" }
%"class.llvm::pointer_union_detail::PointerUnionMembers.645" = type { %"class.llvm::pointer_union_detail::PointerUnionMembers.646" }
%"class.llvm::pointer_union_detail::PointerUnionMembers.646" = type { %"class.llvm::pointer_union_detail::PointerUnionMembers.647" }
%"class.llvm::pointer_union_detail::PointerUnionMembers.647" = type { %"class.llvm::PointerIntPair.648" }
%"class.llvm::PointerIntPair.648" = type { %"struct.llvm::detail::PunnedPointer.610" }
%"struct.llvm::detail::PunnedPointer.610" = type { [8 x i8] }
%"class.llvm::EquivalenceClasses<llvm::PointerUnion<(anonymous namespace)::GlobalTypeMember *, llvm::Metadata *, (anonymous namespace)::ICallBranchFunnel *>>::ECValue" = type { ptr, ptr, %"class.llvm::PointerUnion.643" }

; Function Attrs: mustprogress nounwind uwtable
define internal noundef zeroext i1 @_ZNK4llvm18EquivalenceClassesINS_12PointerUnionIJPN12_GLOBAL__N_116GlobalTypeMemberEPNS_8MetadataEPNS2_17ICallBranchFunnelEEEESt4lessIS9_EE7ECValue8isLeaderEv(ptr noundef nonnull align 8 dereferenceable(24) %0) #1 align 2 {
  %2 = alloca ptr, align 8
  store ptr %0, ptr %2, align 8
  %3 = load ptr, ptr %2, align 8
  %4 = getelementptr inbounds nuw %"class.llvm::EquivalenceClasses<llvm::PointerUnion<(anonymous namespace)::GlobalTypeMember *, llvm::Metadata *, (anonymous namespace)::ICallBranchFunnel *>>::ECValue", ptr %3, i32 0, i32 1
  %5 = load ptr, ptr %4, align 8
  %6 = ptrtoint ptr %5 to i64
  %7 = and i64 %6, 1
  %8 = icmp ne i64 %7, 0
  ret i1 %8
}

; Function Attrs: mustprogress nounwind uwtable
define internal noundef ptr @_ZNK4llvm18EquivalenceClassesINS_12PointerUnionIJPN12_GLOBAL__N_116GlobalTypeMemberEPNS_8MetadataEPNS2_17ICallBranchFunnelEEEESt4lessIS9_EE7ECValue9getLeaderEv(ptr noundef nonnull align 8 dereferenceable(24) %0) #1 align 2 {
  %2 = alloca ptr, align 8
  %3 = alloca ptr, align 8
  store ptr %0, ptr %3, align 8
  %4 = load ptr, ptr %3, align 8
  %5 = call noundef zeroext i1 @_ZNK4llvm18EquivalenceClassesINS_12PointerUnionIJPN12_GLOBAL__N_116GlobalTypeMemberEPNS_8MetadataEPNS2_17ICallBranchFunnelEEEESt4lessIS9_EE7ECValue8isLeaderEv(ptr noundef nonnull align 8 dereferenceable(24) %4)
  br i1 %5, label %6, label %7

6:                                                ; preds = %1
  store ptr %4, ptr %2, align 8
  br label %19

7:                                                ; preds = %1
  %8 = getelementptr inbounds nuw %"class.llvm::EquivalenceClasses<llvm::PointerUnion<(anonymous namespace)::GlobalTypeMember *, llvm::Metadata *, (anonymous namespace)::ICallBranchFunnel *>>::ECValue", ptr %4, i32 0, i32 0
  %9 = load ptr, ptr %8, align 8
  %10 = call noundef zeroext i1 @_ZNK4llvm18EquivalenceClassesINS_12PointerUnionIJPN12_GLOBAL__N_116GlobalTypeMemberEPNS_8MetadataEPNS2_17ICallBranchFunnelEEEESt4lessIS9_EE7ECValue8isLeaderEv(ptr noundef nonnull align 8 dereferenceable(24) %9)
  br i1 %10, label %11, label %14

11:                                               ; preds = %7
  %12 = getelementptr inbounds nuw %"class.llvm::EquivalenceClasses<llvm::PointerUnion<(anonymous namespace)::GlobalTypeMember *, llvm::Metadata *, (anonymous namespace)::ICallBranchFunnel *>>::ECValue", ptr %4, i32 0, i32 0
  %13 = load ptr, ptr %12, align 8
  store ptr %13, ptr %2, align 8
  br label %19

14:                                               ; preds = %7
  %15 = getelementptr inbounds nuw %"class.llvm::EquivalenceClasses<llvm::PointerUnion<(anonymous namespace)::GlobalTypeMember *, llvm::Metadata *, (anonymous namespace)::ICallBranchFunnel *>>::ECValue", ptr %4, i32 0, i32 0
  %16 = load ptr, ptr %15, align 8
  %17 = call noundef ptr @_ZNK4llvm18EquivalenceClassesINS_12PointerUnionIJPN12_GLOBAL__N_116GlobalTypeMemberEPNS_8MetadataEPNS2_17ICallBranchFunnelEEEESt4lessIS9_EE7ECValue9getLeaderEv(ptr noundef nonnull align 8 dereferenceable(24) %16)
  %18 = getelementptr inbounds nuw %"class.llvm::EquivalenceClasses<llvm::PointerUnion<(anonymous namespace)::GlobalTypeMember *, llvm::Metadata *, (anonymous namespace)::ICallBranchFunnel *>>::ECValue", ptr %4, i32 0, i32 0
  store ptr %17, ptr %18, align 8
  store ptr %17, ptr %2, align 8
  br label %19

19:                                               ; preds = %14, %11, %6
  %20 = load ptr, ptr %2, align 8
  ret ptr %20
}