; Function Attrs: mustprogress nofree nosync nounwind memory(readwrite, inaccessiblemem: none) uwtable
define internal fastcc noundef ptr @_ZNK4llvm18EquivalenceClassesINS_12PointerUnionIJPN12_GLOBAL__N_116GlobalTypeMemberEPNS_8MetadataEPNS2_17ICallBranchFunnelEEEESt4lessIS9_EE7ECValue9getLeaderEv(ptr noundef nonnull align 8 dereferenceable(24) %0) unnamed_addr #15 align 2 {
  %2 = getelementptr inbounds nuw i8, ptr %0, i64 8
  %.val2 = load ptr, ptr %2, align 8
  %3 = ptrtoint ptr %.val2 to i64
  %4 = and i64 %3, 1
  %.not = icmp eq i64 %4, 0
  br i1 %.not, label %5, label %common.ret4

5:                                                ; preds = %1
  %6 = load ptr, ptr %0, align 8
  %7 = getelementptr i8, ptr %6, i64 8
  %.val = load ptr, ptr %7, align 8
  %8 = ptrtoint ptr %.val to i64
  %9 = and i64 %8, 1
  %.not3 = icmp eq i64 %9, 0
  br i1 %.not3, label %10, label %common.ret4

common.ret4:                                      ; preds = %5, %1, %10
  %common.ret4.op = phi ptr [ %11, %10 ], [ %0, %1 ], [ %6, %5 ]
  ret ptr %common.ret4.op

10:                                               ; preds = %5
  %11 = tail call fastcc noundef ptr @_ZNK4llvm18EquivalenceClassesINS_12PointerUnionIJPN12_GLOBAL__N_116GlobalTypeMemberEPNS_8MetadataEPNS2_17ICallBranchFunnelEEEESt4lessIS9_EE7ECValue9getLeaderEv(ptr noundef nonnull align 8 dereferenceable(24) %6)
  store ptr %11, ptr %0, align 8
  br label %common.ret4
}